target datalayout = "e-m:e-p270:32:32-p271:32:32-p272:64:64-i64:64-i128:128-f80:128-n8:16:32:64-S128"
target triple = "x86_64-pc-linux-gnu"

%struct.expert_field = type { i32, i32 }

@hf_nan_map_id = internal global i32 0, align 4
@hf_nan_type_status = internal global i32 0, align 4
@hf_nan_reason_code = internal global i32 0, align 4
@hf_nan_dialog_tokens = internal global i32 0, align 4
@hf_nan_time_bitmap = internal global i32 0, align 4
@hf_nan_time_bitmap_len = internal global i32 0, align 4
@hf_nan_time_bitmap_ctrl = internal global i32 0, align 4
@hf_nan_attr_ranging_setup_ctrl = internal global i32 0, align 4
@hf_nan_attr_ranging_setup_ftm_params = internal global i32 0, align 4
@ett_type_status = internal global i32 0, align 4
@ett_time_bitmap_ctrl = internal global i32 0, align 4
@ett_ranging_setup_ctrl = internal global i32 0, align 4
@ett_ranging_setup_ftm_params = internal global i32 0, align 4
@ett_ranging_setup_schedule_entries = internal global i32 0, align 4
@ei_nan_elem_len_invalid = internal global %struct.expert_field zeroinitializer, align 4
@time_bitmap_ctr_fields = internal constant [4 x ptr] [ptr @hf_nan_time_bitmap_ctrl_bit_duration, ptr @hf_nan_time_bitmap_ctrl_period, ptr @hf_nan_time_bitmap_ctrl_start_offset, ptr null], align 16
@dissect_attr_ranging_setup.ranging_setup_type_status_fields = internal constant [3 x ptr] [ptr @hf_nan_attr_ranging_setup_type, ptr @hf_nan_status_2, ptr null], align 16
@dissect_attr_ranging_setup.ranging_setup_ctrl_fields = internal constant [4 x ptr] [ptr @hf_nan_attr_ranging_setup_ctrl_report_req, ptr @hf_nan_attr_ranging_setup_ctrl_ftm_params, ptr @hf_nan_attr_ranging_setup_ctrl_entry_list, ptr null], align 16
@.str.725 = private unnamed_addr constant [28 x i8] c"Ranging Schedule Entry List\00", align 1

; Function Attrs: null_pointer_is_valid sspstrong uwtable
define internal void @dissect_attr_ranging_setup(ptr noundef %0, ptr noundef %1, i32 noundef %2, i16 noundef zeroext %3, ptr noundef %4) #0 {
  %6 = alloca ptr, align 8
  %7 = alloca ptr, align 8
  %8 = alloca i32, align 4
  %9 = alloca i16, align 2
  %10 = alloca ptr, align 8
  %11 = alloca i32, align 4
  %12 = alloca i32, align 4
  %13 = alloca i8, align 1
  %14 = alloca i8, align 1
  %15 = alloca ptr, align 8
  %16 = alloca ptr, align 8
  %17 = alloca i32, align 4
  store ptr %0, ptr %6, align 8
  store ptr %1, ptr %7, align 8
  store i32 %2, ptr %8, align 4
  store i16 %3, ptr %9, align 2
  store ptr %4, ptr %10, align 8
  %18 = load i16, ptr %9, align 2
  %19 = zext i16 %18 to i32
  %20 = icmp slt i32 %19, 4
  br i1 %20, label %21, label %25

21:                                               ; preds = %5
  %22 = load ptr, ptr %10, align 8
  %23 = load ptr, ptr %6, align 8
  %24 = call ptr @expert_add_info(ptr noundef %22, ptr noundef %23, ptr noundef @ei_nan_elem_len_invalid)
  br label %144

25:                                               ; preds = %5
  call void @llvm.lifetime.start.p0(i64 4, ptr %11) #5
  %26 = load i32, ptr %8, align 4
  %27 = add i32 %26, 3
  store i32 %27, ptr %11, align 4
  call void @llvm.lifetime.start.p0(i64 4, ptr %12) #5
  store i32 0, ptr %12, align 4
  %28 = load ptr, ptr %6, align 8
  %29 = load i32, ptr @hf_nan_dialog_tokens, align 4
  %30 = load ptr, ptr %7, align 8
  %31 = load i32, ptr %11, align 4
  %32 = call ptr @proto_tree_add_item(ptr noundef %28, i32 noundef %29, ptr noundef %30, i32 noundef %31, i32 noundef 1, i32 noundef 0)
  %33 = load i32, ptr %11, align 4
  %34 = add i32 %33, 1
  store i32 %34, ptr %11, align 4
  %35 = load ptr, ptr %6, align 8
  %36 = load ptr, ptr %7, align 8
  %37 = load i32, ptr %11, align 4
  %38 = load i32, ptr @hf_nan_type_status, align 4
  %39 = load i32, ptr @ett_type_status, align 4
  %40 = call ptr @proto_tree_add_bitmask(ptr noundef %35, ptr noundef %36, i32 noundef %37, i32 noundef %38, i32 noundef %39, ptr noundef @dissect_attr_ranging_setup.ranging_setup_type_status_fields, i32 noundef -2147483648)
  %41 = load i32, ptr %11, align 4
  %42 = add i32 %41, 1
  store i32 %42, ptr %11, align 4
  %43 = load ptr, ptr %6, align 8
  %44 = load i32, ptr @hf_nan_reason_code, align 4
  %45 = load ptr, ptr %7, align 8
  %46 = load i32, ptr %11, align 4
  %47 = call ptr @proto_tree_add_item(ptr noundef %43, i32 noundef %44, ptr noundef %45, i32 noundef %46, i32 noundef 1, i32 noundef 0)
  %48 = load i32, ptr %11, align 4
  %49 = add i32 %48, 1
  store i32 %49, ptr %11, align 4
  %50 = load ptr, ptr %6, align 8
  %51 = load ptr, ptr %7, align 8
  %52 = load i32, ptr %11, align 4
  %53 = load i32, ptr @hf_nan_attr_ranging_setup_ctrl, align 4
  %54 = load i32, ptr @ett_ranging_setup_ctrl, align 4
  %55 = call ptr @proto_tree_add_bitmask(ptr noundef %50, ptr noundef %51, i32 noundef %52, i32 noundef %53, i32 noundef %54, ptr noundef @dissect_attr_ranging_setup.ranging_setup_ctrl_fields, i32 noundef -2147483648)
  call void @llvm.lifetime.start.p0(i64 1, ptr %13) #5
  %56 = load ptr, ptr %7, align 8
  %57 = load i32, ptr %11, align 4
  %58 = mul i32 %57, 8
  %59 = add i32 %58, 6
  %60 = call zeroext i8 @tvb_get_bits8(ptr noundef %56, i32 noundef %59, i32 noundef 1)
  store i8 %60, ptr %13, align 1
  call void @llvm.lifetime.start.p0(i64 1, ptr %14) #5
  %61 = load ptr, ptr %7, align 8
  %62 = load i32, ptr %11, align 4
  %63 = mul i32 %62, 8
  %64 = add i32 %63, 5
  %65 = call zeroext i8 @tvb_get_bits8(ptr noundef %61, i32 noundef %64, i32 noundef 1)
  store i8 %65, ptr %14, align 1
  %66 = load i32, ptr %11, align 4
  %67 = add i32 %66, 1
  store i32 %67, ptr %11, align 4
  %68 = load i32, ptr %12, align 4
  %69 = add i32 %68, 4
  store i32 %69, ptr %12, align 4
  %70 = load i8, ptr %13, align 1
  %71 = icmp ne i8 %70, 0
  br i1 %71, label %72, label %83

72:                                               ; preds = %25
  %73 = load ptr, ptr %6, align 8
  %74 = load ptr, ptr %7, align 8
  %75 = load i32, ptr %11, align 4
  %76 = load i32, ptr @hf_nan_attr_ranging_setup_ftm_params, align 4
  %77 = load i32, ptr @ett_ranging_setup_ftm_params, align 4
  %78 = call ptr @proto_tree_add_bitmask(ptr noundef %73, ptr noundef %74, i32 noundef %75, i32 noundef %76, i32 noundef %77, ptr noundef @dissect_attr_ranging_setup.ranging_setup_ftm_param_fields, i32 noundef -2147483648)
  %79 = load i32, ptr %11, align 4
  %80 = add i32 %79, 3
  store i32 %80, ptr %11, align 4
  %81 = load i32, ptr %12, align 4
  %82 = add i32 %81, 3
  store i32 %82, ptr %12, align 4
  br label %83

83:                                               ; preds = %72, %25
  %84 = load i8, ptr %14, align 1
  %85 = icmp ne i8 %84, 0
  br i1 %85, label %86, label %143

86:                                               ; preds = %83
  call void @llvm.lifetime.start.p0(i64 8, ptr %15) #5
  store ptr @.str.725, ptr %15, align 8
  call void @llvm.lifetime.start.p0(i64 8, ptr %16) #5
  %87 = load ptr, ptr %6, align 8
  %88 = load ptr, ptr %7, align 8
  %89 = load i32, ptr %11, align 4
  %90 = load i16, ptr %9, align 2
  %91 = zext i16 %90 to i32
  %92 = load i32, ptr %12, align 4
  %93 = sub i32 %91, %92
  %94 = load i32, ptr @ett_ranging_setup_schedule_entries, align 4
  %95 = load ptr, ptr %15, align 8
  %96 = call ptr @proto_tree_add_subtree(ptr noundef %87, ptr noundef %88, i32 noundef %89, i32 noundef %93, i32 noundef %94, ptr noundef null, ptr noundef %95)
  store ptr %96, ptr %16, align 8
  br label %97

97:                                               ; preds = %102, %86
  %98 = load i32, ptr %12, align 4
  %99 = load i16, ptr %9, align 2
  %100 = zext i16 %99 to i32
  %101 = icmp ult i32 %98, %100
  br i1 %101, label %102, label %142

102:                                              ; preds = %97
  %103 = load ptr, ptr %16, align 8
  %104 = load i32, ptr @hf_nan_map_id, align 4
  %105 = load ptr, ptr %7, align 8
  %106 = load i32, ptr %11, align 4
  %107 = call ptr @proto_tree_add_item(ptr noundef %103, i32 noundef %104, ptr noundef %105, i32 noundef %106, i32 noundef 1, i32 noundef 0)
  %108 = load i32, ptr %11, align 4
  %109 = add i32 %108, 1
  store i32 %109, ptr %11, align 4
  %110 = load ptr, ptr %16, align 8
  %111 = load ptr, ptr %7, align 8
  %112 = load i32, ptr %11, align 4
  %113 = load i32, ptr @hf_nan_time_bitmap_ctrl, align 4
  %114 = load i32, ptr @ett_time_bitmap_ctrl, align 4
  %115 = call ptr @proto_tree_add_bitmask(ptr noundef %110, ptr noundef %111, i32 noundef %112, i32 noundef %113, i32 noundef %114, ptr noundef @time_bitmap_ctr_fields, i32 noundef -2147483648)
  %116 = load i32, ptr %11, align 4
  %117 = add i32 %116, 2
  store i32 %117, ptr %11, align 4
  call void @llvm.lifetime.start.p0(i64 4, ptr %17) #5
  %118 = load ptr, ptr %7, align 8
  %119 = load i32, ptr %11, align 4
  %120 = call zeroext i8 @tvb_get_uint8(ptr noundef %118, i32 noundef %119)
  %121 = zext i8 %120 to i32
  store i32 %121, ptr %17, align 4
  %122 = load ptr, ptr %16, align 8
  %123 = load i32, ptr @hf_nan_time_bitmap_len, align 4
  %124 = load ptr, ptr %7, align 8
  %125 = load i32, ptr %11, align 4
  %126 = call ptr @proto_tree_add_item(ptr noundef %122, i32 noundef %123, ptr noundef %124, i32 noundef %125, i32 noundef 1, i32 noundef 0)
  %127 = load i32, ptr %11, align 4
  %128 = add i32 %127, 1
  store i32 %128, ptr %11, align 4
  %129 = load ptr, ptr %16, align 8
  %130 = load i32, ptr @hf_nan_time_bitmap, align 4
  %131 = load ptr, ptr %7, align 8
  %132 = load i32, ptr %11, align 4
  %133 = load i32, ptr %17, align 4
  %134 = call ptr @proto_tree_add_item(ptr noundef %129, i32 noundef %130, ptr noundef %131, i32 noundef %132, i32 noundef %133, i32 noundef 0)
  %135 = load i32, ptr %17, align 4
  %136 = load i32, ptr %11, align 4
  %137 = add i32 %136, %135
  store i32 %137, ptr %11, align 4
  %138 = load i32, ptr %17, align 4
  %139 = add i32 %138, 4
  %140 = load i32, ptr %12, align 4
  %141 = add i32 %140, %139
  store i32 %141, ptr %12, align 4
  call void @llvm.lifetime.end.p0(i64 4, ptr %17) #5
  br label %97, !llvm.loop !15

142:                                              ; preds = %97
  call void @llvm.lifetime.end.p0(i64 8, ptr %16) #5
  call void @llvm.lifetime.end.p0(i64 8, ptr %15) #5
  br label %143

143:                                              ; preds = %142, %83
  call void @llvm.lifetime.end.p0(i64 1, ptr %14) #5
  call void @llvm.lifetime.end.p0(i64 1, ptr %13) #5
  call void @llvm.lifetime.end.p0(i64 4, ptr %12) #5
  call void @llvm.lifetime.end.p0(i64 4, ptr %11) #5
  br label %144

144:                                              ; preds = %143, %21
  ret void
}