; Function Attrs: null_pointer_is_valid sspstrong uwtable
define internal fastcc void @dissect_attr_ranging_setup(ptr noundef %0, ptr noundef %1, i32 noundef %2, i16 noundef zeroext %3, ptr noundef %4) unnamed_addr #0 {
  %6 = zext i16 %3 to i32
  %7 = icmp ult i16 %3, 4
  br i1 %7, label %8, label %10

8:                                                ; preds = %5
  %9 = tail call ptr @expert_add_info(ptr noundef %4, ptr noundef %0, ptr noundef nonnull @ei_nan_elem_len_invalid)
  br label %.loopexit

10:                                               ; preds = %5
  %11 = add i32 %2, 3
  %12 = load i32, ptr @hf_nan_dialog_tokens, align 4
  %13 = tail call ptr @proto_tree_add_item(ptr noundef %0, i32 noundef %12, ptr noundef %1, i32 noundef %11, i32 noundef 1, i32 noundef 0)
  %14 = add i32 %2, 4
  %15 = load i32, ptr @hf_nan_type_status, align 4
  %16 = load i32, ptr @ett_type_status, align 4
  %17 = tail call ptr @proto_tree_add_bitmask(ptr noundef %0, ptr noundef %1, i32 noundef %14, i32 noundef %15, i32 noundef %16, ptr noundef nonnull @dissect_attr_ranging_setup.ranging_setup_type_status_fields, i32 noundef -2147483648)
  %18 = add i32 %2, 5
  %19 = load i32, ptr @hf_nan_reason_code, align 4
  %20 = tail call ptr @proto_tree_add_item(ptr noundef %0, i32 noundef %19, ptr noundef %1, i32 noundef %18, i32 noundef 1, i32 noundef 0)
  %21 = add i32 %2, 6
  %22 = load i32, ptr @hf_nan_attr_ranging_setup_ctrl, align 4
  %23 = load i32, ptr @ett_ranging_setup_ctrl, align 4
  %24 = tail call ptr @proto_tree_add_bitmask(ptr noundef %0, ptr noundef %1, i32 noundef %21, i32 noundef %22, i32 noundef %23, ptr noundef nonnull @dissect_attr_ranging_setup.ranging_setup_ctrl_fields, i32 noundef -2147483648)
  %25 = shl i32 %21, 3
  %26 = or disjoint i32 %25, 6
  %27 = tail call zeroext i8 @tvb_get_bits8(ptr noundef %1, i32 noundef %26, i32 noundef 1)
  %28 = or disjoint i32 %25, 5
  %29 = tail call zeroext i8 @tvb_get_bits8(ptr noundef %1, i32 noundef %28, i32 noundef 1)
  %30 = add i32 %2, 7
  %.not = icmp eq i8 %27, 0
  br i1 %.not, label %36, label %31

31:                                               ; preds = %10
  %32 = load i32, ptr @hf_nan_attr_ranging_setup_ftm_params, align 4
  %33 = load i32, ptr @ett_ranging_setup_ftm_params, align 4
  %34 = tail call ptr @proto_tree_add_bitmask(ptr noundef %0, ptr noundef %1, i32 noundef %30, i32 noundef %32, i32 noundef %33, ptr noundef nonnull @dissect_attr_ranging_setup.ranging_setup_ftm_param_fields, i32 noundef -2147483648)
  %35 = add i32 %2, 10
  br label %36

36:                                               ; preds = %31, %10
  %.061 = phi i32 [ 7, %31 ], [ 4, %10 ]
  %.0 = phi i32 [ %35, %31 ], [ %30, %10 ]
  %.not64 = icmp eq i8 %29, 0
  br i1 %.not64, label %.loopexit, label %37

37:                                               ; preds = %36
  %38 = sub nsw i32 %6, %.061
  %39 = load i32, ptr @ett_ranging_setup_schedule_entries, align 4
  %40 = tail call ptr @proto_tree_add_subtree(ptr noundef %0, ptr noundef %1, i32 noundef %.0, i32 noundef %38, i32 noundef %39, ptr noundef null, ptr noundef nonnull @.str.725)
  %41 = icmp samesign ult i32 %.061, %6
  br i1 %41, label %.lr.ph, label %.loopexit

.lr.ph:                                           ; preds = %37, %.lr.ph
  %.166 = phi i32 [ %56, %.lr.ph ], [ %.0, %37 ]
  %.16265 = phi i32 [ %58, %.lr.ph ], [ %.061, %37 ]
  %42 = load i32, ptr @hf_nan_map_id, align 4
  %43 = tail call ptr @proto_tree_add_item(ptr noundef %40, i32 noundef %42, ptr noundef %1, i32 noundef %.166, i32 noundef 1, i32 noundef 0)
  %44 = add i32 %.166, 1
  %45 = load i32, ptr @hf_nan_time_bitmap_ctrl, align 4
  %46 = load i32, ptr @ett_time_bitmap_ctrl, align 4
  %47 = tail call ptr @proto_tree_add_bitmask(ptr noundef %40, ptr noundef %1, i32 noundef %44, i32 noundef %45, i32 noundef %46, ptr noundef nonnull @time_bitmap_ctr_fields, i32 noundef -2147483648)
  %48 = add i32 %.166, 3
  %49 = tail call zeroext i8 @tvb_get_uint8(ptr noundef %1, i32 noundef %48)
  %50 = zext i8 %49 to i32
  %51 = load i32, ptr @hf_nan_time_bitmap_len, align 4
  %52 = tail call ptr @proto_tree_add_item(ptr noundef %40, i32 noundef %51, ptr noundef %1, i32 noundef %48, i32 noundef 1, i32 noundef 0)
  %53 = add i32 %.166, 4
  %54 = load i32, ptr @hf_nan_time_bitmap, align 4
  %55 = tail call ptr @proto_tree_add_item(ptr noundef %40, i32 noundef %54, ptr noundef %1, i32 noundef %53, i32 noundef %50, i32 noundef 0)
  %56 = add i32 %53, %50
  %57 = add nuw nsw i32 %.16265, 4
  %58 = add nuw nsw i32 %57, %50
  %59 = icmp samesign ult i32 %58, %6
  br i1 %59, label %.lr.ph, label %.loopexit, !llvm.loop !15

.loopexit:                                        ; preds = %.lr.ph, %37, %36, %8
  ret void
}